target datalayout = "e-m:e-p270:32:32-p271:32:32-p272:64:64-i64:64-i128:128-f80:128-n8:16:32:64-S128"
target triple = "x86_64-pc-linux-gnu"

%struct.altsvcinfo = type { ptr, %struct.Curl_llist, i64 }
%struct.Curl_llist = type { ptr, ptr, ptr, i64 }
%struct.altsvc = type { %struct.althost, %struct.althost, i64, i8, i32, %struct.Curl_llist_node }
%struct.althost = type { ptr, i16, i32 }
%struct.Curl_llist_node = type { ptr, ptr, ptr, ptr }

@Curl_cfree = external global ptr, align 8

; Function Attrs: nounwind uwtable
define internal void @altsvc_free(ptr noundef %0) #0 {
  %2 = alloca ptr, align 8
  store ptr %0, ptr %2, align 8, !tbaa !29
  %3 = load ptr, ptr @Curl_cfree, align 8, !tbaa !7
  %4 = load ptr, ptr %2, align 8, !tbaa !29
  %5 = getelementptr inbounds nuw %struct.altsvc, ptr %4, i32 0, i32 0
  %6 = getelementptr inbounds nuw %struct.althost, ptr %5, i32 0, i32 0
  %7 = load ptr, ptr %6, align 8, !tbaa !32
  call void %3(ptr noundef %7)
  %8 = load ptr, ptr @Curl_cfree, align 8, !tbaa !7
  %9 = load ptr, ptr %2, align 8, !tbaa !29
  %10 = getelementptr inbounds nuw %struct.altsvc, ptr %9, i32 0, i32 1
  %11 = getelementptr inbounds nuw %struct.althost, ptr %10, i32 0, i32 0
  %12 = load ptr, ptr %11, align 8, !tbaa !39
  call void %8(ptr noundef %12)
  %13 = load ptr, ptr @Curl_cfree, align 8, !tbaa !7
  %14 = load ptr, ptr %2, align 8, !tbaa !29
  call void %13(ptr noundef %14)
  ret void
}

; Function Attrs: nounwind uwtable
define hidden void @Curl_altsvc_cleanup(ptr noundef %0) #0 {
  %2 = alloca ptr, align 8
  %3 = alloca ptr, align 8
  %4 = alloca ptr, align 8
  %5 = alloca ptr, align 8
  %6 = alloca ptr, align 8
  store ptr %0, ptr %2, align 8, !tbaa !26
  %7 = load ptr, ptr %2, align 8, !tbaa !26
  %8 = load ptr, ptr %7, align 8, !tbaa !9
  %9 = icmp ne ptr %8, null
  br i1 %9, label %10, label %35

10:                                               ; preds = %1
  call void @llvm.lifetime.start.p0(i64 8, ptr %3) #7
  call void @llvm.lifetime.start.p0(i64 8, ptr %4) #7
  call void @llvm.lifetime.start.p0(i64 8, ptr %5) #7
  %11 = load ptr, ptr %2, align 8, !tbaa !26
  %12 = load ptr, ptr %11, align 8, !tbaa !9
  store ptr %12, ptr %5, align 8, !tbaa !9
  %13 = load ptr, ptr %5, align 8, !tbaa !9
  %14 = getelementptr inbounds nuw %struct.altsvcinfo, ptr %13, i32 0, i32 1
  %15 = call ptr @Curl_llist_head(ptr noundef %14)
  store ptr %15, ptr %3, align 8, !tbaa !28
  br label %16

16:                                               ; preds = %25, %10
  %17 = load ptr, ptr %3, align 8, !tbaa !28
  %18 = icmp ne ptr %17, null
  br i1 %18, label %19, label %27

19:                                               ; preds = %16
  call void @llvm.lifetime.start.p0(i64 8, ptr %6) #7
  %20 = load ptr, ptr %3, align 8, !tbaa !28
  %21 = call ptr @Curl_node_elem(ptr noundef %20)
  store ptr %21, ptr %6, align 8, !tbaa !29
  %22 = load ptr, ptr %3, align 8, !tbaa !28
  %23 = call ptr @Curl_node_next(ptr noundef %22)
  store ptr %23, ptr %4, align 8, !tbaa !28
  %24 = load ptr, ptr %6, align 8, !tbaa !29
  call void @altsvc_free(ptr noundef %24)
  call void @llvm.lifetime.end.p0(i64 8, ptr %6) #7
  br label %25

25:                                               ; preds = %19
  %26 = load ptr, ptr %4, align 8, !tbaa !28
  store ptr %26, ptr %3, align 8, !tbaa !28
  br label %16, !llvm.loop !31

27:                                               ; preds = %16
  %28 = load ptr, ptr @Curl_cfree, align 8, !tbaa !7
  %29 = load ptr, ptr %5, align 8, !tbaa !9
  %30 = getelementptr inbounds nuw %struct.altsvcinfo, ptr %29, i32 0, i32 0
  %31 = load ptr, ptr %30, align 8, !tbaa !18
  call void %28(ptr noundef %31)
  %32 = load ptr, ptr @Curl_cfree, align 8, !tbaa !7
  %33 = load ptr, ptr %5, align 8, !tbaa !9
  call void %32(ptr noundef %33)
  %34 = load ptr, ptr %2, align 8, !tbaa !26
  store ptr null, ptr %34, align 8, !tbaa !9
  call void @llvm.lifetime.end.p0(i64 8, ptr %5) #7
  call void @llvm.lifetime.end.p0(i64 8, ptr %4) #7
  call void @llvm.lifetime.end.p0(i64 8, ptr %3) #7
  br label %35

35:                                               ; preds = %27, %1
  ret void
}