; Function Attrs: nounwind uwtable
define hidden void @Curl_altsvc_cleanup(ptr noundef captures(none) %0) local_unnamed_addr #1 {
  %2 = load ptr, ptr %0, align 8, !tbaa !32
  %.not = icmp eq ptr %2, null
  br i1 %.not, label %17, label %3

3:                                                ; preds = %1
  %4 = getelementptr inbounds nuw i8, ptr %2, i64 8
  %5 = tail call ptr @Curl_llist_head(ptr noundef nonnull %4) #12
  %.not1213 = icmp eq ptr %5, null
  br i1 %.not1213, label %._crit_edge, label %.lr.ph

.lr.ph:                                           ; preds = %3, %.lr.ph
  %.014 = phi ptr [ %7, %.lr.ph ], [ %5, %3 ]
  %6 = tail call ptr @Curl_node_elem(ptr noundef nonnull %.014) #12
  %7 = tail call ptr @Curl_node_next(ptr noundef nonnull %.014) #12
  %8 = load ptr, ptr @Curl_cfree, align 8, !tbaa !3
  %9 = load ptr, ptr %6, align 8, !tbaa !34
  tail call void %8(ptr noundef %9) #12
  %10 = load ptr, ptr @Curl_cfree, align 8, !tbaa !3
  %11 = getelementptr inbounds nuw i8, ptr %6, i64 16
  %12 = load ptr, ptr %11, align 8, !tbaa !35
  tail call void %10(ptr noundef %12) #12
  %13 = load ptr, ptr @Curl_cfree, align 8, !tbaa !3
  tail call void %13(ptr noundef nonnull %6) #12
  %.not12 = icmp eq ptr %7, null
  br i1 %.not12, label %._crit_edge, label %.lr.ph, !llvm.loop !36

._crit_edge:                                      ; preds = %.lr.ph, %3
  %14 = load ptr, ptr @Curl_cfree, align 8, !tbaa !3
  %15 = load ptr, ptr %2, align 8, !tbaa !13
  tail call void %14(ptr noundef %15) #12
  %16 = load ptr, ptr @Curl_cfree, align 8, !tbaa !3
  tail call void %16(ptr noundef nonnull %2) #12
  store ptr null, ptr %0, align 8, !tbaa !32
  br label %17

17:                                               ; preds = %._crit_edge, %1
  ret void
}